	.file	"pretopost.c"
	.text
	.section	.rodata
.LC0:
	.string	" %d"
	.text
	.globl	findPostOrderUtil
	.type	findPostOrderUtil, @function
findPostOrderUtil:
.LFB0:
	.cfi_startproc
	pushq	%rbp
	.cfi_def_cfa_offset 16
	.cfi_offset 6, -16
	movq	%rsp, %rbp
	.cfi_def_cfa_register 6
	subq	$48, %rsp
	movq	%rdi, -24(%rbp)
	movl	%esi, -28(%rbp)
	movl	%edx, -32(%rbp)
	movl	%ecx, -36(%rbp)
	movq	%r8, -48(%rbp)
	movq	-48(%rbp), %rax
	movl	(%rax), %eax
	cmpl	%eax, -28(%rbp)
	je	.L6
	movq	-48(%rbp), %rax
	movl	(%rax), %eax
	cltq
	leaq	0(,%rax,4), %rdx
	movq	-24(%rbp), %rax
	addq	%rdx, %rax
	movl	(%rax), %eax
	cmpl	%eax, -32(%rbp)
	jg	.L7
	movq	-48(%rbp), %rax
	movl	(%rax), %eax
	cltq
	leaq	0(,%rax,4), %rdx
	movq	-24(%rbp), %rax
	addq	%rdx, %rax
	movl	(%rax), %eax
	cmpl	%eax, -36(%rbp)
	jl	.L7
	movq	-48(%rbp), %rax
	movl	(%rax), %eax
	cltq
	leaq	0(,%rax,4), %rdx
	movq	-24(%rbp), %rax
	addq	%rdx, %rax
	movl	(%rax), %eax
	movl	%eax, -4(%rbp)
	movq	-48(%rbp), %rax
	movl	(%rax), %eax
	leal	1(%rax), %edx
	movq	-48(%rbp), %rax
	movl	%edx, (%rax)
	movq	-48(%rbp), %rdi
	movl	-4(%rbp), %ecx
	movl	-32(%rbp), %edx
	movl	-28(%rbp), %esi
	movq	-24(%rbp), %rax
	movq	%rdi, %r8
	movq	%rax, %rdi
	call	findPostOrderUtil
	movq	-48(%rbp), %rdi
	movl	-36(%rbp), %ecx
	movl	-4(%rbp), %edx
	movl	-28(%rbp), %esi
	movq	-24(%rbp), %rax
	movq	%rdi, %r8
	movq	%rax, %rdi
	call	findPostOrderUtil
	movl	-4(%rbp), %eax
	movl	%eax, %esi
	leaq	.LC0(%rip), %rdi
	movl	$0, %eax
	call	printf@PLT
	jmp	.L1
.L6:
	nop
	jmp	.L1
.L7:
	nop
.L1:
	leave
	.cfi_def_cfa 7, 8
	ret
	.cfi_endproc
.LFE0:
	.size	findPostOrderUtil, .-findPostOrderUtil
	.globl	findPostOrder
	.type	findPostOrder, @function
findPostOrder:
.LFB1:
	.cfi_startproc
	pushq	%rbp
	.cfi_def_cfa_offset 16
	.cfi_offset 6, -16
	movq	%rsp, %rbp
	.cfi_def_cfa_register 6
	subq	$32, %rsp
	movq	%rdi, -24(%rbp)
	movl	%esi, -28(%rbp)
	movq	%fs:40, %rax
	movq	%rax, -8(%rbp)
	xorl	%eax, %eax
	movl	$0, -12(%rbp)
	leaq	-12(%rbp), %rdx
	movl	-28(%rbp), %esi
	movq	-24(%rbp), %rax
	movq	%rdx, %r8
	movl	$2147483647, %ecx
	movl	$-2147483648, %edx
	movq	%rax, %rdi
	call	findPostOrderUtil
	nop
	movq	-8(%rbp), %rax
	xorq	%fs:40, %rax
	je	.L9
	call	__stack_chk_fail@PLT
.L9:
	leave
	.cfi_def_cfa 7, 8
	ret
	.cfi_endproc
.LFE1:
	.size	findPostOrder, .-findPostOrder
	.globl	main
	.type	main, @function
main:
.LFB2:
	.cfi_startproc
	pushq	%rbp
	.cfi_def_cfa_offset 16
	.cfi_offset 6, -16
	movq	%rsp, %rbp
	.cfi_def_cfa_register 6
	subq	$80, %rsp
	movq	%fs:40, %rax
	movq	%rax, -8(%rbp)
	xorl	%eax, %eax
	movl	$15, -64(%rbp)
	movl	$10, -60(%rbp)
	movl	$8, -56(%rbp)
	movl	$6, -52(%rbp)
	movl	$9, -48(%rbp)
	movl	$12, -44(%rbp)
	movl	$20, -40(%rbp)
	movl	$16, -36(%rbp)
	movl	$25, -32(%rbp)
	movl	$24, -28(%rbp)
	movl	$26, -24(%rbp)
	movl	$11, -68(%rbp)
	movl	-68(%rbp), %edx
	leaq	-64(%rbp), %rax
	movl	%edx, %esi
	movq	%rax, %rdi
	call	findPostOrder
	movl	$0, %eax
	movq	-8(%rbp), %rcx
	xorq	%fs:40, %rcx
	je	.L12
	call	__stack_chk_fail@PLT
.L12:
	leave
	.cfi_def_cfa 7, 8
	ret
	.cfi_endproc
.LFE2:
	.size	main, .-main
	.ident	"GCC: (Ubuntu 7.4.0-1ubuntu1~18.04.1) 7.4.0"
	.section	.note.GNU-stack,"",@progbits
